; Function Attrs: mustprogress nounwind uwtable
define range(i32 0, 2) i32 @ShExcludeAttributes(ptr noundef %0, ptr noundef %1, i32 noundef %2) local_unnamed_addr #3 {
  %4 = icmp eq ptr %0, null
  br i1 %4, label %15, label %5

5:                                                ; preds = %3
  %6 = load ptr, ptr %0, align 8
  %7 = getelementptr inbounds nuw i8, ptr %6, i64 24
  %8 = load ptr, ptr %7, align 8
  %9 = tail call noundef ptr %8(ptr noundef nonnull align 8 dereferenceable(16) %0) #24
  %10 = icmp eq ptr %9, null
  br i1 %10, label %15, label %11

11:                                               ; preds = %5
  %12 = load ptr, ptr %9, align 8
  %13 = getelementptr inbounds nuw i8, ptr %12, i64 88
  %14 = load ptr, ptr %13, align 8
  tail call void %14(ptr noundef nonnull align 8 dereferenceable(72) %9, ptr noundef %1, i32 noundef %2) #24
  br label %15

15:                                               ; preds = %5, %3, %11
  %.0 = phi i32 [ 1, %11 ], [ 0, %3 ], [ 0, %5 ]
  ret i32 %.0
}